target datalayout = "e-m:e-p270:32:32-p271:32:32-p272:64:64-i64:64-i128:128-f80:128-n8:16:32:64-S128"
target triple = "x86_64-pc-linux-gnu"

%"class.icu_77::ReplaceableGlue" = type { %"class.icu_77::Replaceable", ptr, ptr }
%"class.icu_77::Replaceable" = type { %"class.icu_77::UObject" }
%"class.icu_77::UObject" = type { ptr }
%struct.UReplaceableCallbacks = type { ptr, ptr, ptr, ptr, ptr, ptr }

; Function Attrs: mustprogress uwtable
define noundef zeroext i16 @_ZNK6icu_7715ReplaceableGlue9getCharAtEi(ptr noundef nonnull align 8 dereferenceable(24) %0, i32 noundef %1) unnamed_addr #1 align 2 {
  %3 = alloca ptr, align 8
  %4 = alloca i32, align 4
  store ptr %0, ptr %3, align 8, !tbaa !3
  store i32 %1, ptr %4, align 4, !tbaa !23
  %5 = load ptr, ptr %3, align 8
  %6 = getelementptr inbounds nuw %"class.icu_77::ReplaceableGlue", ptr %5, i32 0, i32 2
  %7 = load ptr, ptr %6, align 8, !tbaa !18
  %8 = getelementptr inbounds nuw %struct.UReplaceableCallbacks, ptr %7, i32 0, i32 1
  %9 = load ptr, ptr %8, align 8, !tbaa !25
  %10 = getelementptr inbounds nuw %"class.icu_77::ReplaceableGlue", ptr %5, i32 0, i32 1
  %11 = load ptr, ptr %10, align 8, !tbaa !14
  %12 = load i32, ptr %4, align 4, !tbaa !23
  %13 = call noundef zeroext i16 %9(ptr noundef %11, i32 noundef %12)
  ret i16 %13
}