; Function Attrs: mustprogress uwtable
define noundef zeroext i16 @_ZNK6icu_7715ReplaceableGlue9getCharAtEi(ptr noundef nonnull readonly align 8 captures(none) dereferenceable(24) %0, i32 noundef %1) unnamed_addr #4 align 2 {
  %3 = getelementptr inbounds nuw i8, ptr %0, i64 16
  %4 = load ptr, ptr %3, align 8, !tbaa !14
  %5 = getelementptr inbounds nuw i8, ptr %4, i64 8
  %6 = load ptr, ptr %5, align 8, !tbaa !17
  %7 = getelementptr inbounds nuw i8, ptr %0, i64 8
  %8 = load ptr, ptr %7, align 8, !tbaa !6
  %9 = tail call noundef zeroext i16 %6(ptr noundef %8, i32 noundef %1)
  ret i16 %9
}